target datalayout = "e-m:e-p270:32:32-p271:32:32-p272:64:64-i64:64-i128:128-f80:128-n8:16:32:64-S128"
target triple = "x86_64-pc-linux-gnu"

%struct._spdu_uds_mapping = type { i32, i32, i8, i32, i32 }

@spdu_uds_mapping = internal global ptr null, align 8
@spdu_uds_mapping_num = internal global i32 0, align 4
@data_spdu_uds_mappings = internal global ptr null, align 8

; Function Attrs: null_pointer_is_valid sspstrong uwtable
define internal void @post_update_spdu_uds_mapping_cb() #0 {
  %1 = alloca i32, align 4
  %2 = alloca i32, align 4
  %3 = alloca ptr, align 8
  %4 = alloca i64, align 8
  %5 = alloca i64, align 8
  %6 = alloca ptr, align 8
  %7 = alloca ptr, align 8
  %8 = alloca i64, align 8
  %9 = alloca i64, align 8
  %10 = alloca ptr, align 8
  %11 = alloca ptr, align 8
  %12 = load ptr, ptr @data_spdu_uds_mappings, align 8
  %13 = icmp ne ptr %12, null
  br i1 %13, label %14, label %16

14:                                               ; preds = %0
  %15 = load ptr, ptr @data_spdu_uds_mappings, align 8
  call void @g_hash_table_destroy(ptr noundef %15)
  br label %16

16:                                               ; preds = %14, %0
  %17 = call ptr @g_hash_table_new_full(ptr noundef @g_int64_hash, ptr noundef @g_int64_equal, ptr noundef @g_free, ptr noundef null)
  store ptr %17, ptr @data_spdu_uds_mappings, align 8
  call void @llvm.lifetime.start.p0(i64 4, ptr %1) #14
  store i32 0, ptr %1, align 4
  br label %18

18:                                               ; preds = %158, %16
  %19 = load i32, ptr %1, align 4
  %20 = load i32, ptr @spdu_uds_mapping_num, align 4
  %21 = icmp ult i32 %19, %20
  br i1 %21, label %23, label %22

22:                                               ; preds = %18
  call void @llvm.lifetime.end.p0(i64 4, ptr %1) #14
  br label %161

23:                                               ; preds = %18
  call void @llvm.lifetime.start.p0(i64 4, ptr %2) #14
  %24 = load ptr, ptr @spdu_uds_mapping, align 8
  %25 = load i32, ptr %1, align 4
  %26 = zext i32 %25 to i64
  %27 = getelementptr %struct._spdu_uds_mapping, ptr %24, i64 %26
  %28 = getelementptr inbounds nuw %struct._spdu_uds_mapping, ptr %27, i32 0, i32 2
  %29 = load i8, ptr %28, align 4, !range !6, !noundef !7
  %30 = trunc i8 %29 to i1
  br i1 %30, label %31, label %40

31:                                               ; preds = %23
  %32 = load ptr, ptr @spdu_uds_mapping, align 8
  %33 = load i32, ptr %1, align 4
  %34 = zext i32 %33 to i64
  %35 = getelementptr %struct._spdu_uds_mapping, ptr %32, i64 %34
  %36 = getelementptr inbounds nuw %struct._spdu_uds_mapping, ptr %35, i32 0, i32 1
  %37 = load i32, ptr %36, align 4
  %38 = and i32 255, %37
  %39 = or i32 %38, 64
  store i32 %39, ptr %2, align 4
  br label %48

40:                                               ; preds = %23
  %41 = load ptr, ptr @spdu_uds_mapping, align 8
  %42 = load i32, ptr %1, align 4
  %43 = zext i32 %42 to i64
  %44 = getelementptr %struct._spdu_uds_mapping, ptr %41, i64 %43
  %45 = getelementptr inbounds nuw %struct._spdu_uds_mapping, ptr %44, i32 0, i32 1
  %46 = load i32, ptr %45, align 4
  %47 = and i32 255, %46
  store i32 %47, ptr %2, align 4
  br label %48

48:                                               ; preds = %40, %31
  call void @llvm.lifetime.start.p0(i64 8, ptr %3) #14
  call void @llvm.lifetime.start.p0(i64 8, ptr %4) #14
  store i64 1, ptr %4, align 8
  call void @llvm.lifetime.start.p0(i64 8, ptr %5) #14
  store i64 8, ptr %5, align 8
  call void @llvm.lifetime.start.p0(i64 8, ptr %6) #14
  %49 = load i64, ptr %5, align 8
  %50 = icmp eq i64 %49, 1
  br i1 %50, label %51, label %54

51:                                               ; preds = %48
  %52 = load i64, ptr %4, align 8
  %53 = call noalias ptr @g_malloc(i64 noundef %52) #16
  store ptr %53, ptr %6, align 8
  br label %75

54:                                               ; preds = %48
  %55 = load i64, ptr %4, align 8
  %56 = call i1 @llvm.is.constant.i64(i64 %55)
  br i1 %56, label %57, label %70

57:                                               ; preds = %54
  %58 = load i64, ptr %5, align 8
  %59 = icmp eq i64 %58, 0
  br i1 %59, label %65, label %60

60:                                               ; preds = %57
  %61 = load i64, ptr %4, align 8
  %62 = load i64, ptr %5, align 8
  %63 = udiv i64 -1, %62
  %64 = icmp ule i64 %61, %63
  br i1 %64, label %65, label %70

65:                                               ; preds = %60, %57
  %66 = load i64, ptr %4, align 8
  %67 = load i64, ptr %5, align 8
  %68 = mul i64 %66, %67
  %69 = call noalias ptr @g_malloc(i64 noundef %68) #16
  store ptr %69, ptr %6, align 8
  br label %74

70:                                               ; preds = %60, %54
  %71 = load i64, ptr %4, align 8
  %72 = load i64, ptr %5, align 8
  %73 = call noalias ptr @g_malloc_n(i64 noundef %71, i64 noundef %72) #17
  store ptr %73, ptr %6, align 8
  br label %74

74:                                               ; preds = %70, %65
  br label %75

75:                                               ; preds = %74, %51
  %76 = load ptr, ptr %6, align 8
  store ptr %76, ptr %7, align 8
  call void @llvm.lifetime.end.p0(i64 8, ptr %6) #14
  call void @llvm.lifetime.end.p0(i64 8, ptr %5) #14
  call void @llvm.lifetime.end.p0(i64 8, ptr %4) #14
  %77 = load ptr, ptr %7, align 8
  store ptr %77, ptr %3, align 8
  %78 = load ptr, ptr @spdu_uds_mapping, align 8
  %79 = load i32, ptr %1, align 4
  %80 = zext i32 %79 to i64
  %81 = getelementptr %struct._spdu_uds_mapping, ptr %78, i64 %80
  %82 = getelementptr inbounds nuw %struct._spdu_uds_mapping, ptr %81, i32 0, i32 0
  %83 = load i32, ptr %82, align 4
  %84 = zext i32 %83 to i64
  %85 = load ptr, ptr @spdu_uds_mapping, align 8
  %86 = load i32, ptr %1, align 4
  %87 = zext i32 %86 to i64
  %88 = getelementptr %struct._spdu_uds_mapping, ptr %85, i64 %87
  %89 = getelementptr inbounds nuw %struct._spdu_uds_mapping, ptr %88, i32 0, i32 3
  %90 = load i32, ptr %89, align 4
  %91 = zext i32 %90 to i64
  %92 = and i64 %91, 65535
  %93 = shl i64 %92, 32
  %94 = or i64 %84, %93
  %95 = load i32, ptr %2, align 4
  %96 = zext i32 %95 to i64
  %97 = shl i64 %96, 48
  %98 = or i64 %94, %97
  %99 = load ptr, ptr %3, align 8
  store i64 %98, ptr %99, align 8
  %100 = load ptr, ptr @data_spdu_uds_mappings, align 8
  %101 = load ptr, ptr %3, align 8
  %102 = load ptr, ptr @spdu_uds_mapping, align 8
  %103 = load i32, ptr %1, align 4
  %104 = zext i32 %103 to i64
  %105 = getelementptr %struct._spdu_uds_mapping, ptr %102, i64 %104
  %106 = call i32 @g_hash_table_insert(ptr noundef %100, ptr noundef %101, ptr noundef %105)
  call void @llvm.lifetime.start.p0(i64 8, ptr %8) #14
  store i64 1, ptr %8, align 8
  call void @llvm.lifetime.start.p0(i64 8, ptr %9) #14
  store i64 8, ptr %9, align 8
  call void @llvm.lifetime.start.p0(i64 8, ptr %10) #14
  %107 = load i64, ptr %9, align 8
  %108 = icmp eq i64 %107, 1
  br i1 %108, label %109, label %112

109:                                              ; preds = %75
  %110 = load i64, ptr %8, align 8
  %111 = call noalias ptr @g_malloc(i64 noundef %110) #16
  store ptr %111, ptr %10, align 8
  br label %133

112:                                              ; preds = %75
  %113 = load i64, ptr %8, align 8
  %114 = call i1 @llvm.is.constant.i64(i64 %113)
  br i1 %114, label %115, label %128

115:                                              ; preds = %112
  %116 = load i64, ptr %9, align 8
  %117 = icmp eq i64 %116, 0
  br i1 %117, label %123, label %118

118:                                              ; preds = %115
  %119 = load i64, ptr %8, align 8
  %120 = load i64, ptr %9, align 8
  %121 = udiv i64 -1, %120
  %122 = icmp ule i64 %119, %121
  br i1 %122, label %123, label %128

123:                                              ; preds = %118, %115
  %124 = load i64, ptr %8, align 8
  %125 = load i64, ptr %9, align 8
  %126 = mul i64 %124, %125
  %127 = call noalias ptr @g_malloc(i64 noundef %126) #16
  store ptr %127, ptr %10, align 8
  br label %132

128:                                              ; preds = %118, %112
  %129 = load i64, ptr %8, align 8
  %130 = load i64, ptr %9, align 8
  %131 = call noalias ptr @g_malloc_n(i64 noundef %129, i64 noundef %130) #17
  store ptr %131, ptr %10, align 8
  br label %132

132:                                              ; preds = %128, %123
  br label %133

133:                                              ; preds = %132, %109
  %134 = load ptr, ptr %10, align 8
  store ptr %134, ptr %11, align 8
  call void @llvm.lifetime.end.p0(i64 8, ptr %10) #14
  call void @llvm.lifetime.end.p0(i64 8, ptr %9) #14
  call void @llvm.lifetime.end.p0(i64 8, ptr %8) #14
  %135 = load ptr, ptr %11, align 8
  store ptr %135, ptr %3, align 8
  %136 = load ptr, ptr @spdu_uds_mapping, align 8
  %137 = load i32, ptr %1, align 4
  %138 = zext i32 %137 to i64
  %139 = getelementptr %struct._spdu_uds_mapping, ptr %136, i64 %138
  %140 = getelementptr inbounds nuw %struct._spdu_uds_mapping, ptr %139, i32 0, i32 3
  %141 = load i32, ptr %140, align 4
  %142 = and i32 65535, %141
  %143 = zext i32 %142 to i64
  %144 = shl i64 %143, 32
  %145 = or i64 4294967295, %144
  %146 = load i32, ptr %2, align 4
  %147 = zext i32 %146 to i64
  %148 = shl i64 %147, 48
  %149 = or i64 %145, %148
  %150 = load ptr, ptr %3, align 8
  store i64 %149, ptr %150, align 8
  %151 = load ptr, ptr @data_spdu_uds_mappings, align 8
  %152 = load ptr, ptr %3, align 8
  %153 = load ptr, ptr @spdu_uds_mapping, align 8
  %154 = load i32, ptr %1, align 4
  %155 = zext i32 %154 to i64
  %156 = getelementptr %struct._spdu_uds_mapping, ptr %153, i64 %155
  %157 = call i32 @g_hash_table_insert(ptr noundef %151, ptr noundef %152, ptr noundef %156)
  call void @llvm.lifetime.end.p0(i64 8, ptr %3) #14
  call void @llvm.lifetime.end.p0(i64 4, ptr %2) #14
  br label %158

158:                                              ; preds = %133
  %159 = load i32, ptr %1, align 4
  %160 = add i32 %159, 1
  store i32 %160, ptr %1, align 4
  br label %18, !llvm.loop !17

161:                                              ; preds = %22
  ret void
}