; Function Attrs: null_pointer_is_valid sspstrong uwtable
define internal void @post_update_spdu_uds_mapping_cb() #0 {
  %1 = load ptr, ptr @data_spdu_uds_mappings, align 8
  %.not = icmp eq ptr %1, null
  br i1 %.not, label %3, label %2

2:                                                ; preds = %0
  tail call void @g_hash_table_destroy(ptr noundef nonnull %1)
  br label %3

3:                                                ; preds = %2, %0
  %4 = tail call ptr @g_hash_table_new_full(ptr noundef nonnull @g_int64_hash, ptr noundef nonnull @g_int64_equal, ptr noundef nonnull @g_free, ptr noundef null)
  store ptr %4, ptr @data_spdu_uds_mappings, align 8
  %5 = load i32, ptr @spdu_uds_mapping_num, align 4
  %.not44 = icmp eq i32 %5, 0
  br i1 %.not44, label %._crit_edge, label %.lr.ph

._crit_edge:                                      ; preds = %.lr.ph, %3
  ret void

.lr.ph:                                           ; preds = %3, %.lr.ph
  %indvars.iv = phi i64 [ %indvars.iv.next, %.lr.ph ], [ 0, %3 ]
  %6 = load ptr, ptr @spdu_uds_mapping, align 8
  %7 = getelementptr %struct._spdu_uds_mapping, ptr %6, i64 %indvars.iv
  %8 = getelementptr inbounds nuw i8, ptr %7, i64 8
  %9 = load i8, ptr %8, align 4, !range !6, !noundef !7
  %10 = trunc nuw i8 %9 to i1
  %11 = getelementptr inbounds nuw i8, ptr %7, i64 4
  %12 = load i32, ptr %11, align 4
  %13 = and i32 %12, 191
  %14 = or disjoint i32 %13, 64
  %15 = and i32 %12, 255
  %.040 = select i1 %10, i32 %14, i32 %15
  %16 = tail call noalias dereferenceable_or_null(8) ptr @g_malloc(i64 noundef 8) #18
  %17 = load ptr, ptr @spdu_uds_mapping, align 8
  %18 = getelementptr %struct._spdu_uds_mapping, ptr %17, i64 %indvars.iv
  %19 = load i32, ptr %18, align 4
  %20 = zext i32 %19 to i64
  %21 = getelementptr inbounds nuw i8, ptr %18, i64 12
  %22 = load i32, ptr %21, align 4
  %23 = and i32 %22, 65535
  %24 = zext nneg i32 %23 to i64
  %25 = shl nuw nsw i64 %24, 32
  %26 = or disjoint i64 %25, %20
  %27 = zext nneg i32 %.040 to i64
  %28 = shl nuw nsw i64 %27, 48
  %29 = or disjoint i64 %26, %28
  store i64 %29, ptr %16, align 8
  %30 = load ptr, ptr @data_spdu_uds_mappings, align 8
  %31 = tail call i32 @g_hash_table_insert(ptr noundef %30, ptr noundef %16, ptr noundef %18)
  %32 = tail call noalias dereferenceable_or_null(8) ptr @g_malloc(i64 noundef 8) #18
  %33 = load ptr, ptr @spdu_uds_mapping, align 8
  %34 = getelementptr %struct._spdu_uds_mapping, ptr %33, i64 %indvars.iv, i32 3
  %35 = load i32, ptr %34, align 4
  %36 = and i32 %35, 65535
  %37 = zext nneg i32 %36 to i64
  %38 = shl nuw nsw i64 %37, 32
  %39 = or disjoint i64 %38, %28
  %40 = or disjoint i64 %39, 4294967295
  store i64 %40, ptr %32, align 8
  %41 = load ptr, ptr @data_spdu_uds_mappings, align 8
  %42 = getelementptr %struct._spdu_uds_mapping, ptr %33, i64 %indvars.iv
  %43 = tail call i32 @g_hash_table_insert(ptr noundef %41, ptr noundef %32, ptr noundef %42)
  %indvars.iv.next = add nuw nsw i64 %indvars.iv, 1
  %44 = load i32, ptr @spdu_uds_mapping_num, align 4
  %45 = zext i32 %44 to i64
  %46 = icmp samesign ult i64 %indvars.iv.next, %45
  br i1 %46, label %.lr.ph, label %._crit_edge, !llvm.loop !26
}